target datalayout = "e-m:e-p270:32:32-p271:32:32-p272:64:64-i64:64-i128:128-f80:128-n8:16:32:64-S128"
target triple = "x86_64-pc-linux-gnu"

%struct.Vec_Int_t_ = type { i32, i32, ptr }

; Function Attrs: nounwind uwtable
define internal i32 @lit_neg(i32 noundef %0) #0 {
  %2 = alloca i32, align 4
  store i32 %0, ptr %2, align 4
  %3 = load i32, ptr %2, align 4
  %4 = xor i32 %3, 1
  ret i32 %4
}

; Function Attrs: nounwind uwtable
define internal i32 @Vec_IntEntry(ptr noundef %0, i32 noundef %1) #0 {
  %3 = alloca ptr, align 8
  %4 = alloca i32, align 4
  store ptr %0, ptr %3, align 8
  store i32 %1, ptr %4, align 4
  %5 = load ptr, ptr %3, align 8
  %6 = getelementptr inbounds %struct.Vec_Int_t_, ptr %5, i32 0, i32 2
  %7 = load ptr, ptr %6, align 8
  %8 = load i32, ptr %4, align 4
  %9 = sext i32 %8 to i64
  %10 = getelementptr inbounds i32, ptr %7, i64 %9
  %11 = load i32, ptr %10, align 4
  ret i32 %11
}

; Function Attrs: nounwind uwtable
define internal i32 @Vec_IntSize(ptr noundef %0) #0 {
  %2 = alloca ptr, align 8
  store ptr %0, ptr %2, align 8
  %3 = load ptr, ptr %2, align 8
  %4 = getelementptr inbounds %struct.Vec_Int_t_, ptr %3, i32 0, i32 1
  %5 = load i32, ptr %4, align 4
  ret i32 %5
}

; Function Attrs: nounwind uwtable
define void @Ga2_ManCnfAddStatic(ptr noundef %0, ptr noundef %1, ptr noundef %2, ptr noundef %3, i32 noundef %4, i32 noundef %5) #0 {
  %7 = alloca ptr, align 8
  %8 = alloca ptr, align 8
  %9 = alloca ptr, align 8
  %10 = alloca ptr, align 8
  %11 = alloca i32, align 4
  %12 = alloca i32, align 4
  %13 = alloca ptr, align 8
  %14 = alloca i32, align 4
  %15 = alloca i32, align 4
  %16 = alloca i32, align 4
  %17 = alloca i32, align 4
  %18 = alloca i32, align 4
  %19 = alloca i32, align 4
  %20 = alloca [6 x i32], align 16
  store ptr %0, ptr %7, align 8
  store ptr %1, ptr %8, align 8
  store ptr %2, ptr %9, align 8
  store ptr %3, ptr %10, align 8
  store i32 %4, ptr %11, align 4
  store i32 %5, ptr %12, align 4
  store i32 0, ptr %14, align 4
  br label %21

21:                                               ; preds = %116, %6
  %22 = load i32, ptr %14, align 4
  %23 = icmp slt i32 %22, 2
  br i1 %23, label %24, label %119

24:                                               ; preds = %21
  %25 = load i32, ptr %14, align 4
  %26 = icmp ne i32 %25, 0
  br i1 %26, label %27, label %29

27:                                               ; preds = %24
  %28 = load ptr, ptr %9, align 8
  br label %31

29:                                               ; preds = %24
  %30 = load ptr, ptr %8, align 8
  br label %31

31:                                               ; preds = %29, %27
  %32 = phi ptr [ %28, %27 ], [ %30, %29 ]
  store ptr %32, ptr %13, align 8
  store i32 0, ptr %15, align 4
  br label %33

33:                                               ; preds = %112, %31
  %34 = load i32, ptr %15, align 4
  %35 = load ptr, ptr %13, align 8
  %36 = call i32 @Vec_IntSize(ptr noundef %35)
  %37 = icmp slt i32 %34, %36
  br i1 %37, label %38, label %42

38:                                               ; preds = %33
  %39 = load ptr, ptr %13, align 8
  %40 = load i32, ptr %15, align 4
  %41 = call i32 @Vec_IntEntry(ptr noundef %39, i32 noundef %40)
  store i32 %41, ptr %17, align 4
  br label %42

42:                                               ; preds = %38, %33
  %43 = phi i1 [ false, %33 ], [ true, %38 ]
  br i1 %43, label %44, label %115

44:                                               ; preds = %42
  store i32 0, ptr %19, align 4
  %45 = load i32, ptr %14, align 4
  %46 = icmp ne i32 %45, 0
  br i1 %46, label %47, label %50

47:                                               ; preds = %44
  %48 = load i32, ptr %11, align 4
  %49 = call i32 @lit_neg(i32 noundef %48)
  br label %52

50:                                               ; preds = %44
  %51 = load i32, ptr %11, align 4
  br label %52

52:                                               ; preds = %50, %47
  %53 = phi i32 [ %49, %47 ], [ %51, %50 ]
  %54 = load i32, ptr %19, align 4
  %55 = add nsw i32 %54, 1
  store i32 %55, ptr %19, align 4
  %56 = sext i32 %54 to i64
  %57 = getelementptr inbounds [6 x i32], ptr %20, i64 0, i64 %56
  store i32 %53, ptr %57, align 4
  store i32 0, ptr %16, align 4
  br label %58

58:                                               ; preds = %100, %52
  %59 = load i32, ptr %16, align 4
  %60 = icmp slt i32 %59, 5
  br i1 %60, label %61, label %103

61:                                               ; preds = %58
  %62 = load i32, ptr %17, align 4
  %63 = load i32, ptr %16, align 4
  %64 = shl i32 %63, 1
  %65 = ashr i32 %62, %64
  %66 = and i32 3, %65
  store i32 %66, ptr %18, align 4
  %67 = load i32, ptr %18, align 4
  %68 = icmp eq i32 %67, 1
  br i1 %68, label %69, label %79

69:                                               ; preds = %61
  %70 = load ptr, ptr %10, align 8
  %71 = load i32, ptr %16, align 4
  %72 = sext i32 %71 to i64
  %73 = getelementptr inbounds i32, ptr %70, i64 %72
  %74 = load i32, ptr %73, align 4
  %75 = load i32, ptr %19, align 4
  %76 = add nsw i32 %75, 1
  store i32 %76, ptr %19, align 4
  %77 = sext i32 %75 to i64
  %78 = getelementptr inbounds [6 x i32], ptr %20, i64 0, i64 %77
  store i32 %74, ptr %78, align 4
  br label %99

79:                                               ; preds = %61
  %80 = load i32, ptr %18, align 4
  %81 = icmp eq i32 %80, 2
  br i1 %81, label %82, label %93

82:                                               ; preds = %79
  %83 = load ptr, ptr %10, align 8
  %84 = load i32, ptr %16, align 4
  %85 = sext i32 %84 to i64
  %86 = getelementptr inbounds i32, ptr %83, i64 %85
  %87 = load i32, ptr %86, align 4
  %88 = call i32 @lit_neg(i32 noundef %87)
  %89 = load i32, ptr %19, align 4
  %90 = add nsw i32 %89, 1
  store i32 %90, ptr %19, align 4
  %91 = sext i32 %89 to i64
  %92 = getelementptr inbounds [6 x i32], ptr %20, i64 0, i64 %91
  store i32 %88, ptr %92, align 4
  br label %98

93:                                               ; preds = %79
  %94 = load i32, ptr %18, align 4
  %95 = icmp ne i32 %94, 0
  br i1 %95, label %96, label %97

96:                                               ; preds = %93
  br label %97

97:                                               ; preds = %96, %93
  br label %98

98:                                               ; preds = %97, %82
  br label %99

99:                                               ; preds = %98, %69
  br label %100

100:                                              ; preds = %99
  %101 = load i32, ptr %16, align 4
  %102 = add nsw i32 %101, 1
  store i32 %102, ptr %16, align 4
  br label %58, !llvm.loop !30

103:                                              ; preds = %58
  %104 = load ptr, ptr %7, align 8
  %105 = getelementptr inbounds [6 x i32], ptr %20, i64 0, i64 0
  %106 = getelementptr inbounds [6 x i32], ptr %20, i64 0, i64 0
  %107 = load i32, ptr %19, align 4
  %108 = sext i32 %107 to i64
  %109 = getelementptr inbounds i32, ptr %106, i64 %108
  %110 = load i32, ptr %12, align 4
  %111 = call i32 @sat_solver2_addclause(ptr noundef %104, ptr noundef %105, ptr noundef %109, i32 noundef %110)
  br label %112

112:                                              ; preds = %103
  %113 = load i32, ptr %15, align 4
  %114 = add nsw i32 %113, 1
  store i32 %114, ptr %15, align 4
  br label %33, !llvm.loop !31

115:                                              ; preds = %42
  br label %116

116:                                              ; preds = %115
  %117 = load i32, ptr %14, align 4
  %118 = add nsw i32 %117, 1
  store i32 %118, ptr %14, align 4
  br label %21, !llvm.loop !32

119:                                              ; preds = %21
  ret void
}