; Function Attrs: nounwind uwtable
define void @Ga2_ManCnfAddStatic(ptr noundef %0, ptr noundef readonly captures(none) %1, ptr noundef readonly captures(none) %2, ptr noundef readonly captures(none) %3, i32 noundef %4, i32 noundef %5) local_unnamed_addr #4 {
  %7 = alloca [6 x i32], align 16
  br label %8

8:                                                ; preds = %6, %.critedge
  %.not.not = phi i1 [ true, %6 ], [ false, %.critedge ]
  %.02938 = phi i32 [ 0, %6 ], [ 1, %.critedge ]
  %9 = select i1 %.not.not, ptr %1, ptr %2
  %10 = getelementptr i8, ptr %9, i64 4
  %.val36 = load i32, ptr %10, align 4
  %11 = icmp sgt i32 %.val36, 0
  br i1 %11, label %.lr.ph, label %.critedge

.lr.ph:                                           ; preds = %8
  %12 = getelementptr i8, ptr %9, i64 8
  %spec.select = xor i32 %.02938, %4
  br label %13

13:                                               ; preds = %.lr.ph, %31
  %indvars.iv40 = phi i64 [ 0, %.lr.ph ], [ %indvars.iv.next41, %31 ]
  %.val33 = load ptr, ptr %12, align 8
  %14 = getelementptr inbounds nuw i32, ptr %.val33, i64 %indvars.iv40
  %15 = load i32, ptr %14, align 4
  store i32 %spec.select, ptr %7, align 16
  br label %16

16:                                               ; preds = %13, %30
  %indvars.iv = phi i64 [ 0, %13 ], [ %indvars.iv.next, %30 ]
  %.035 = phi i32 [ 1, %13 ], [ %.1, %30 ]
  %indvars.iv.tr = trunc i64 %indvars.iv to i32
  %17 = shl i32 %indvars.iv.tr, 1
  %18 = ashr i32 %15, %17
  %19 = and i32 %18, 3
  switch i32 %19, label %30 [
    i32 1, label %20
    i32 2, label %23
  ]

20:                                               ; preds = %16
  %21 = getelementptr inbounds nuw i32, ptr %3, i64 %indvars.iv
  %22 = load i32, ptr %21, align 4
  br label %.sink.split

23:                                               ; preds = %16
  %24 = getelementptr inbounds nuw i32, ptr %3, i64 %indvars.iv
  %25 = load i32, ptr %24, align 4
  %26 = xor i32 %25, 1
  br label %.sink.split

.sink.split:                                      ; preds = %23, %20
  %.sink = phi i32 [ %22, %20 ], [ %26, %23 ]
  %27 = add nsw i32 %.035, 1
  %28 = sext i32 %.035 to i64
  %29 = getelementptr inbounds [6 x i32], ptr %7, i64 0, i64 %28
  store i32 %.sink, ptr %29, align 4
  br label %30

30:                                               ; preds = %.sink.split, %16
  %.1 = phi i32 [ %.035, %16 ], [ %27, %.sink.split ]
  %indvars.iv.next = add nuw nsw i64 %indvars.iv, 1
  %exitcond.not = icmp eq i64 %indvars.iv.next, 5
  br i1 %exitcond.not, label %31, label %16, !llvm.loop !29

31:                                               ; preds = %30
  %32 = sext i32 %.1 to i64
  %33 = getelementptr inbounds i32, ptr %7, i64 %32
  %34 = call i32 @sat_solver2_addclause(ptr noundef %0, ptr noundef nonnull %7, ptr noundef nonnull %33, i32 noundef %5) #28
  %indvars.iv.next41 = add nuw nsw i64 %indvars.iv40, 1
  %.val = load i32, ptr %10, align 4
  %35 = sext i32 %.val to i64
  %36 = icmp slt i64 %indvars.iv.next41, %35
  br i1 %36, label %13, label %.critedge, !llvm.loop !30

.critedge:                                        ; preds = %31, %8
  br i1 %.not.not, label %8, label %37, !llvm.loop !31

37:                                               ; preds = %.critedge
  ret void
}